; ModuleID = 'source-C-CXX/28/645.c'
source_filename = "source-C-CXX/28/645.c"
target datalayout = "e-m:e-p270:32:32-p271:32:32-p272:64:64-i64:64-f80:128-n8:16:32:64-S128"
target triple = "x86_64-pc-linux-gnu"

@.str = private unnamed_addr constant [3 x i8] c"%d\00", align 1
@.str.1 = private unnamed_addr constant [7 x i8] c"%.3lf\0A\00", align 1

; Function Attrs: nofree nounwind sspstrong uwtable
define dso_local void @main() local_unnamed_addr #0 {
  %1 = alloca i32, align 4
  %2 = alloca [100 x i32], align 16
  %3 = alloca [100 x double], align 16
  %4 = bitcast i32* %1 to i8*
  call void @llvm.lifetime.start.p0i8(i64 4, i8* nonnull %4) #5
  %5 = bitcast [100 x i32]* %2 to i8*
  call void @llvm.lifetime.start.p0i8(i64 400, i8* nonnull %5) #5
  %6 = bitcast [100 x double]* %3 to i8*
  call void @llvm.lifetime.start.p0i8(i64 800, i8* nonnull %6) #5
  call void @llvm.memset.p0i8.i64(i8* noundef nonnull align 16 dereferenceable(800) %6, i8 0, i64 800, i1 false)
  %7 = call i32 (i8*, ...) @__isoc99_scanf(i8* getelementptr inbounds ([3 x i8], [3 x i8]* @.str, i64 0, i64 0), i32* nonnull %1)
  %8 = load i32, i32* %1, align 4, !tbaa !5
  %9 = icmp sgt i32 %8, 0
  br i1 %9, label %14, label %54

10:                                               ; preds = %14
  %11 = icmp sgt i32 %19, 0
  br i1 %11, label %12, label %54

12:                                               ; preds = %10
  %13 = zext i32 %19 to i64
  br label %22

14:                                               ; preds = %0, %14
  %15 = phi i64 [ %18, %14 ], [ 0, %0 ]
  %16 = getelementptr inbounds [100 x i32], [100 x i32]* %2, i64 0, i64 %15
  %17 = call i32 (i8*, ...) @__isoc99_scanf(i8* getelementptr inbounds ([3 x i8], [3 x i8]* @.str, i64 0, i64 0), i32* nonnull %16)
  %18 = add nuw nsw i64 %15, 1
  %19 = load i32, i32* %1, align 4, !tbaa !5
  %20 = sext i32 %19 to i64
  %21 = icmp slt i64 %18, %20
  br i1 %21, label %14, label %10, !llvm.loop !9

22:                                               ; preds = %12, %42
  %23 = phi i64 [ 0, %12 ], [ %43, %42 ]
  %24 = getelementptr inbounds [100 x i32], [100 x i32]* %2, i64 0, i64 %23
  %25 = load i32, i32* %24, align 4, !tbaa !5
  %26 = getelementptr inbounds [100 x double], [100 x double]* %3, i64 0, i64 %23
  %27 = icmp sgt i32 %25, 0
  br i1 %27, label %29, label %42

28:                                               ; preds = %42
  br i1 %11, label %45, label %54

29:                                               ; preds = %22, %29
  %30 = phi i32 [ %40, %29 ], [ 0, %22 ]
  %31 = add nuw nsw i32 %30, 3
  %32 = call i32 @fbnq(i32 %31)
  %33 = sitofp i32 %32 to double
  %34 = add nuw nsw i32 %30, 2
  %35 = call i32 @fbnq(i32 %34)
  %36 = sitofp i32 %35 to double
  %37 = fdiv double %33, %36
  %38 = load double, double* %26, align 8, !tbaa !11
  %39 = fadd double %38, %37
  store double %39, double* %26, align 8, !tbaa !11
  %40 = add nuw nsw i32 %30, 1
  %41 = icmp eq i32 %40, %25
  br i1 %41, label %42, label %29, !llvm.loop !13

42:                                               ; preds = %29, %22
  %43 = add nuw nsw i64 %23, 1
  %44 = icmp eq i64 %43, %13
  br i1 %44, label %28, label %22, !llvm.loop !14

45:                                               ; preds = %28, %45
  %46 = phi i64 [ %50, %45 ], [ 0, %28 ]
  %47 = getelementptr inbounds [100 x double], [100 x double]* %3, i64 0, i64 %46
  %48 = load double, double* %47, align 8, !tbaa !11
  %49 = call i32 (i8*, ...) @printf(i8* nonnull dereferenceable(1) getelementptr inbounds ([7 x i8], [7 x i8]* @.str.1, i64 0, i64 0), double %48)
  %50 = add nuw nsw i64 %46, 1
  %51 = load i32, i32* %1, align 4, !tbaa !5
  %52 = sext i32 %51 to i64
  %53 = icmp slt i64 %50, %52
  br i1 %53, label %45, label %54, !llvm.loop !15

54:                                               ; preds = %45, %10, %0, %28
  call void @llvm.lifetime.end.p0i8(i64 800, i8* nonnull %6) #5
  call void @llvm.lifetime.end.p0i8(i64 400, i8* nonnull %5) #5
  call void @llvm.lifetime.end.p0i8(i64 4, i8* nonnull %4) #5
  ret void
}

; Function Attrs: argmemonly mustprogress nofree nosync nounwind willreturn
declare void @llvm.lifetime.start.p0i8(i64 immarg, i8* nocapture) #1

; Function Attrs: argmemonly mustprogress nofree nounwind willreturn writeonly
declare void @llvm.memset.p0i8.i64(i8* nocapture writeonly, i8, i64, i1 immarg) #2

; Function Attrs: nofree nounwind
declare noundef i32 @__isoc99_scanf(i8* nocapture noundef readonly, ...) local_unnamed_addr #3

; Function Attrs: nofree nosync nounwind readnone sspstrong uwtable
define dso_local i32 @fbnq(i32 %0) local_unnamed_addr #4 {
  br label %2

2:                                                ; preds = %6, %1
  %3 = phi i32 [ 0, %1 ], [ %10, %6 ]
  %4 = phi i32 [ %0, %1 ], [ %9, %6 ]
  %5 = icmp ult i32 %4, 2
  br i1 %5, label %11, label %6

6:                                                ; preds = %2
  %7 = add nsw i32 %4, -1
  %8 = tail call i32 @fbnq(i32 %7)
  %9 = add nsw i32 %4, -2
  %10 = add nsw i32 %8, %3
  br label %2

11:                                               ; preds = %2
  %12 = add nsw i32 %4, %3
  ret i32 %12
}

; Function Attrs: nofree nounwind
declare noundef i32 @printf(i8* nocapture noundef readonly, ...) local_unnamed_addr #3

; Function Attrs: argmemonly mustprogress nofree nosync nounwind willreturn
declare void @llvm.lifetime.end.p0i8(i64 immarg, i8* nocapture) #1


!llvm.module.flags = !{!0, !1, !2, !3}
!llvm.ident = !{!4}

!0 = !{i32 1, !"wchar_size", i32 4}
!1 = !{i32 7, !"PIC Level", i32 2}
!2 = !{i32 7, !"PIE Level", i32 2}
!3 = !{i32 7, !"uwtable", i32 1}
!4 = !{!"clang version 13.0.0"}
!5 = !{!6, !6, i64 0}
!6 = !{!"int", !7, i64 0}
!7 = !{!"omnipotent char", !8, i64 0}
!8 = !{!"Simple C/C++ TBAA"}
!9 = distinct !{!9, !10}
!10 = !{!"llvm.loop.mustprogress"}
!11 = !{!12, !12, i64 0}
!12 = !{!"double", !7, i64 0}
!13 = distinct !{!13, !10}
!14 = distinct !{!14, !10}
!15 = distinct !{!15, !10}
